; Function Attrs: nounwind sspstrong uwtable
define internal i64 @io_buffer_or(i64 noundef %0, i64 noundef %1) #0 {
  %3 = tail call ptr @rb_check_typeddata(i64 noundef %0, ptr noundef nonnull @rb_io_buffer_type) #25
  %4 = tail call ptr @rb_check_typeddata(i64 noundef %1, ptr noundef nonnull @rb_io_buffer_type) #25
  %5 = getelementptr i8, ptr %4, i64 8
  %.val = load i64, ptr %5, align 8, !tbaa !16
  %6 = icmp eq i64 %.val, 0
  br i1 %6, label %7, label %io_buffer_check_mask.exit

7:                                                ; preds = %2
  %8 = load i64, ptr @rb_eIOBufferMaskError, align 8, !tbaa !22
  tail call void (i64, ptr, ...) @rb_raise(i64 noundef %8, ptr noundef nonnull @.str.143) #26
  unreachable

io_buffer_check_mask.exit:                        ; preds = %2
  %9 = getelementptr inbounds nuw i8, ptr %3, i64 8
  %10 = load i64, ptr %9, align 8, !tbaa !16
  %11 = load i64, ptr @RUBY_IO_BUFFER_PAGE_SIZE, align 8, !tbaa !22
  %.not.i = icmp ult i64 %10, %11
  %..i = select i1 %.not.i, i32 2, i32 4
  %12 = load i64, ptr @rb_cIOBuffer, align 8, !tbaa !22
  %13 = tail call i64 @rb_data_typed_object_zalloc(i64 noundef %12, i64 noundef 32, ptr noundef nonnull @rb_io_buffer_type) #25
  %14 = inttoptr i64 %13 to ptr
  %15 = getelementptr inbounds nuw i8, ptr %14, i64 24
  %16 = load i64, ptr %15, align 8, !tbaa !17
  %17 = and i64 %16, 2
  %.not.i.i.i = icmp eq i64 %17, 0
  %18 = getelementptr i8, ptr %14, i64 32
  br i1 %.not.i.i.i, label %19, label %rb_io_buffer_new.exit

19:                                               ; preds = %io_buffer_check_mask.exit
  %20 = load ptr, ptr %18, align 8, !tbaa !21
  br label %rb_io_buffer_new.exit

rb_io_buffer_new.exit:                            ; preds = %io_buffer_check_mask.exit, %19
  %21 = phi ptr [ %20, %19 ], [ %18, %io_buffer_check_mask.exit ]
  %22 = getelementptr inbounds nuw i8, ptr %21, i64 24
  tail call void @llvm.memset.p0.i64(ptr noundef nonnull align 8 dereferenceable(16) %21, i8 0, i64 16, i1 false)
  store i64 4, ptr %22, align 8, !tbaa !7
  %23 = tail call ptr @rb_check_typeddata(i64 noundef %13, ptr noundef nonnull @rb_io_buffer_type) #25
  tail call fastcc void @io_buffer_initialize(i64 noundef %13, ptr noundef %23, ptr noundef null, i64 noundef %10, i32 noundef %..i, i64 noundef 4)
  %24 = tail call ptr @rb_check_typeddata(i64 noundef %13, ptr noundef nonnull @rb_io_buffer_type) #25
  %25 = load ptr, ptr %24, align 8, !tbaa !14
  %26 = load ptr, ptr %3, align 8, !tbaa !14
  %27 = load i64, ptr %9, align 8, !tbaa !16
  %28 = load ptr, ptr %4, align 8, !tbaa !14
  %29 = load i64, ptr %5, align 8, !tbaa !16
  tail call void @llvm.experimental.noalias.scope.decl(metadata !97)
  tail call void @llvm.experimental.noalias.scope.decl(metadata !100)
  tail call void @llvm.experimental.noalias.scope.decl(metadata !102)
  %.not.i11 = icmp eq i64 %27, 0
  br i1 %.not.i11, label %memory_or.exit, label %.lr.ph.i

.lr.ph.i:                                         ; preds = %rb_io_buffer_new.exit, %.lr.ph.i
  %.09.i = phi i64 [ %37, %.lr.ph.i ], [ 0, %rb_io_buffer_new.exit ]
  %30 = getelementptr i8, ptr %26, i64 %.09.i
  %31 = load i8, ptr %30, align 1, !tbaa !36, !alias.scope !100, !noalias !104
  %32 = urem i64 %.09.i, %29
  %33 = getelementptr i8, ptr %28, i64 %32
  %34 = load i8, ptr %33, align 1, !tbaa !36, !alias.scope !102, !noalias !105
  %35 = or i8 %34, %31
  %36 = getelementptr i8, ptr %25, i64 %.09.i
  store i8 %35, ptr %36, align 1, !tbaa !36, !alias.scope !97, !noalias !106
  %37 = add nuw i64 %.09.i, 1
  %exitcond.not.i = icmp eq i64 %37, %27
  br i1 %exitcond.not.i, label %memory_or.exit, label %.lr.ph.i, !llvm.loop !107

memory_or.exit:                                   ; preds = %.lr.ph.i, %rb_io_buffer_new.exit
  ret i64 %13
}